target datalayout = "e-m:e-p270:32:32-p271:32:32-p272:64:64-i64:64-i128:128-f80:128-n8:16:32:64-S128"
target triple = "x86_64-pc-linux-gnu"

%struct.Vec_Flt_t_ = type { i32, i32, ptr }

; Function Attrs: nounwind uwtable
define internal void @Vec_StrPut_(ptr noundef %0) #0 {
  %2 = alloca ptr, align 8
  store ptr %0, ptr %2, align 8
  ret void
}

; Function Attrs: nounwind uwtable
define internal float @Vec_FltEntry(ptr noundef %0, i32 noundef %1) #0 {
  %3 = alloca ptr, align 8
  %4 = alloca i32, align 4
  store ptr %0, ptr %3, align 8
  store i32 %1, ptr %4, align 4
  %5 = load ptr, ptr %3, align 8
  %6 = getelementptr inbounds %struct.Vec_Flt_t_, ptr %5, i32 0, i32 2
  %7 = load ptr, ptr %6, align 8
  %8 = load i32, ptr %4, align 4
  %9 = sext i32 %8 to i64
  %10 = getelementptr inbounds float, ptr %7, i64 %9
  %11 = load float, ptr %10, align 4
  ret float %11
}

; Function Attrs: nounwind uwtable
define internal i32 @Vec_FltSize(ptr noundef %0) #0 {
  %2 = alloca ptr, align 8
  store ptr %0, ptr %2, align 8
  %3 = load ptr, ptr %2, align 8
  %4 = getelementptr inbounds %struct.Vec_Flt_t_, ptr %3, i32 0, i32 1
  %5 = load i32, ptr %4, align 4
  ret i32 %5
}

; Function Attrs: nounwind uwtable
define void @Scl_LibertyDumpTables(ptr noundef %0, ptr noundef %1, ptr noundef %2, ptr noundef %3) #0 {
  %5 = alloca ptr, align 8
  %6 = alloca ptr, align 8
  %7 = alloca ptr, align 8
  %8 = alloca ptr, align 8
  %9 = alloca i32, align 4
  %10 = alloca float, align 4
  store ptr %0, ptr %5, align 8
  store ptr %1, ptr %6, align 8
  store ptr %2, ptr %7, align 8
  store ptr %3, ptr %8, align 8
  %11 = load ptr, ptr %5, align 8
  %12 = load ptr, ptr %6, align 8
  %13 = call i32 @Vec_FltSize(ptr noundef %12)
  call void @Vec_StrPutI_(ptr noundef %11, i32 noundef %13)
  store i32 0, ptr %9, align 4
  br label %14

14:                                               ; preds = %28, %4
  %15 = load i32, ptr %9, align 4
  %16 = load ptr, ptr %6, align 8
  %17 = call i32 @Vec_FltSize(ptr noundef %16)
  %18 = icmp slt i32 %15, %17
  br i1 %18, label %19, label %23

19:                                               ; preds = %14
  %20 = load ptr, ptr %6, align 8
  %21 = load i32, ptr %9, align 4
  %22 = call float @Vec_FltEntry(ptr noundef %20, i32 noundef %21)
  store float %22, ptr %10, align 4
  br label %23

23:                                               ; preds = %19, %14
  %24 = phi i1 [ false, %14 ], [ true, %19 ]
  br i1 %24, label %25, label %31

25:                                               ; preds = %23
  %26 = load ptr, ptr %5, align 8
  %27 = load float, ptr %10, align 4
  call void @Vec_StrPutF_(ptr noundef %26, float noundef %27)
  br label %28

28:                                               ; preds = %25
  %29 = load i32, ptr %9, align 4
  %30 = add nsw i32 %29, 1
  store i32 %30, ptr %9, align 4
  br label %14, !llvm.loop !59

31:                                               ; preds = %23
  %32 = load ptr, ptr %5, align 8
  call void @Vec_StrPut_(ptr noundef %32)
  %33 = load ptr, ptr %5, align 8
  %34 = load ptr, ptr %7, align 8
  %35 = call i32 @Vec_FltSize(ptr noundef %34)
  call void @Vec_StrPutI_(ptr noundef %33, i32 noundef %35)
  store i32 0, ptr %9, align 4
  br label %36

36:                                               ; preds = %50, %31
  %37 = load i32, ptr %9, align 4
  %38 = load ptr, ptr %7, align 8
  %39 = call i32 @Vec_FltSize(ptr noundef %38)
  %40 = icmp slt i32 %37, %39
  br i1 %40, label %41, label %45

41:                                               ; preds = %36
  %42 = load ptr, ptr %7, align 8
  %43 = load i32, ptr %9, align 4
  %44 = call float @Vec_FltEntry(ptr noundef %42, i32 noundef %43)
  store float %44, ptr %10, align 4
  br label %45

45:                                               ; preds = %41, %36
  %46 = phi i1 [ false, %36 ], [ true, %41 ]
  br i1 %46, label %47, label %53

47:                                               ; preds = %45
  %48 = load ptr, ptr %5, align 8
  %49 = load float, ptr %10, align 4
  call void @Vec_StrPutF_(ptr noundef %48, float noundef %49)
  br label %50

50:                                               ; preds = %47
  %51 = load i32, ptr %9, align 4
  %52 = add nsw i32 %51, 1
  store i32 %52, ptr %9, align 4
  br label %36, !llvm.loop !60

53:                                               ; preds = %45
  %54 = load ptr, ptr %5, align 8
  call void @Vec_StrPut_(ptr noundef %54)
  %55 = load ptr, ptr %5, align 8
  call void @Vec_StrPut_(ptr noundef %55)
  store i32 0, ptr %9, align 4
  br label %56

56:                                               ; preds = %81, %53
  %57 = load i32, ptr %9, align 4
  %58 = load ptr, ptr %8, align 8
  %59 = call i32 @Vec_FltSize(ptr noundef %58)
  %60 = icmp slt i32 %57, %59
  br i1 %60, label %61, label %65

61:                                               ; preds = %56
  %62 = load ptr, ptr %8, align 8
  %63 = load i32, ptr %9, align 4
  %64 = call float @Vec_FltEntry(ptr noundef %62, i32 noundef %63)
  store float %64, ptr %10, align 4
  br label %65

65:                                               ; preds = %61, %56
  %66 = phi i1 [ false, %56 ], [ true, %61 ]
  br i1 %66, label %67, label %84

67:                                               ; preds = %65
  %68 = load ptr, ptr %5, align 8
  %69 = load float, ptr %10, align 4
  call void @Vec_StrPutF_(ptr noundef %68, float noundef %69)
  %70 = load i32, ptr %9, align 4
  %71 = load ptr, ptr %7, align 8
  %72 = call i32 @Vec_FltSize(ptr noundef %71)
  %73 = srem i32 %70, %72
  %74 = load ptr, ptr %7, align 8
  %75 = call i32 @Vec_FltSize(ptr noundef %74)
  %76 = sub nsw i32 %75, 1
  %77 = icmp eq i32 %73, %76
  br i1 %77, label %78, label %80

78:                                               ; preds = %67
  %79 = load ptr, ptr %5, align 8
  call void @Vec_StrPut_(ptr noundef %79)
  br label %80

80:                                               ; preds = %78, %67
  br label %81

81:                                               ; preds = %80
  %82 = load i32, ptr %9, align 4
  %83 = add nsw i32 %82, 1
  store i32 %83, ptr %9, align 4
  br label %56, !llvm.loop !61

84:                                               ; preds = %65
  %85 = load ptr, ptr %5, align 8
  call void @Vec_StrPut_(ptr noundef %85)
  store i32 0, ptr %9, align 4
  br label %86

86:                                               ; preds = %91, %84
  %87 = load i32, ptr %9, align 4
  %88 = icmp slt i32 %87, 3
  br i1 %88, label %89, label %94

89:                                               ; preds = %86
  %90 = load ptr, ptr %5, align 8
  call void @Vec_StrPutF_(ptr noundef %90, float noundef 0.000000e+00)
  br label %91

91:                                               ; preds = %89
  %92 = load i32, ptr %9, align 4
  %93 = add nsw i32 %92, 1
  store i32 %93, ptr %9, align 4
  br label %86, !llvm.loop !62

94:                                               ; preds = %86
  store i32 0, ptr %9, align 4
  br label %95

95:                                               ; preds = %100, %94
  %96 = load i32, ptr %9, align 4
  %97 = icmp slt i32 %96, 4
  br i1 %97, label %98, label %103

98:                                               ; preds = %95
  %99 = load ptr, ptr %5, align 8
  call void @Vec_StrPutF_(ptr noundef %99, float noundef 0.000000e+00)
  br label %100

100:                                              ; preds = %98
  %101 = load i32, ptr %9, align 4
  %102 = add nsw i32 %101, 1
  store i32 %102, ptr %9, align 4
  br label %95, !llvm.loop !63

103:                                              ; preds = %95
  store i32 0, ptr %9, align 4
  br label %104

104:                                              ; preds = %109, %103
  %105 = load i32, ptr %9, align 4
  %106 = icmp slt i32 %105, 6
  br i1 %106, label %107, label %112

107:                                              ; preds = %104
  %108 = load ptr, ptr %5, align 8
  call void @Vec_StrPutF_(ptr noundef %108, float noundef 0.000000e+00)
  br label %109

109:                                              ; preds = %107
  %110 = load i32, ptr %9, align 4
  %111 = add nsw i32 %110, 1
  store i32 %111, ptr %9, align 4
  br label %104, !llvm.loop !64

112:                                              ; preds = %104
  %113 = load ptr, ptr %5, align 8
  call void @Vec_StrPut_(ptr noundef %113)
  %114 = load ptr, ptr %5, align 8
  call void @Vec_StrPut_(ptr noundef %114)
  ret void
}