; Function Attrs: nounwind uwtable
define void @Scl_LibertyDumpTables(ptr noundef captures(none) %0, ptr noundef readonly captures(none) %1, ptr noundef readonly captures(none) %2, ptr noundef readonly captures(none) %3) local_unnamed_addr #4 {
  %5 = getelementptr i8, ptr %1, i64 4
  %.val = load i32, ptr %5, align 4
  tail call fastcc void @Vec_StrPutI_(ptr noundef %0, i32 noundef %.val)
  %.val4757 = load i32, ptr %5, align 4
  %6 = icmp sgt i32 %.val4757, 0
  br i1 %6, label %.lr.ph, label %.critedge

.lr.ph:                                           ; preds = %4
  %7 = getelementptr i8, ptr %1, i64 8
  br label %8

8:                                                ; preds = %.lr.ph, %8
  %indvars.iv = phi i64 [ 0, %.lr.ph ], [ %indvars.iv.next, %8 ]
  %.val53 = load ptr, ptr %7, align 8
  %9 = getelementptr inbounds nuw float, ptr %.val53, i64 %indvars.iv
  %10 = load float, ptr %9, align 4
  tail call fastcc void @Vec_StrPutF_(ptr noundef %0, float noundef %10)
  %indvars.iv.next = add nuw nsw i64 %indvars.iv, 1
  %.val47 = load i32, ptr %5, align 4
  %11 = sext i32 %.val47 to i64
  %12 = icmp slt i64 %indvars.iv.next, %11
  br i1 %12, label %8, label %.critedge, !llvm.loop !60

.critedge:                                        ; preds = %8, %4
  %13 = getelementptr i8, ptr %2, i64 4
  %.val48 = load i32, ptr %13, align 4
  tail call fastcc void @Vec_StrPutI_(ptr noundef %0, i32 noundef %.val48)
  %.val4959 = load i32, ptr %13, align 4
  %14 = icmp sgt i32 %.val4959, 0
  br i1 %14, label %.lr.ph61, label %.critedge2.preheader

.lr.ph61:                                         ; preds = %.critedge
  %15 = getelementptr i8, ptr %2, i64 8
  br label %19

.critedge2.preheader:                             ; preds = %19, %.critedge
  %16 = getelementptr i8, ptr %3, i64 4
  %.val5062 = load i32, ptr %16, align 4
  %17 = icmp sgt i32 %.val5062, 0
  br i1 %17, label %.lr.ph64, label %.critedge4.preheader

.lr.ph64:                                         ; preds = %.critedge2.preheader
  %18 = getelementptr i8, ptr %3, i64 8
  br label %.critedge2

19:                                               ; preds = %.lr.ph61, %19
  %indvars.iv69 = phi i64 [ 0, %.lr.ph61 ], [ %indvars.iv.next70, %19 ]
  %.val54 = load ptr, ptr %15, align 8
  %20 = getelementptr inbounds nuw float, ptr %.val54, i64 %indvars.iv69
  %21 = load float, ptr %20, align 4
  tail call fastcc void @Vec_StrPutF_(ptr noundef %0, float noundef %21)
  %indvars.iv.next70 = add nuw nsw i64 %indvars.iv69, 1
  %.val49 = load i32, ptr %13, align 4
  %22 = sext i32 %.val49 to i64
  %23 = icmp slt i64 %indvars.iv.next70, %22
  br i1 %23, label %19, label %.critedge2.preheader, !llvm.loop !61

.critedge2:                                       ; preds = %.lr.ph64, %.critedge2
  %indvars.iv72 = phi i64 [ 0, %.lr.ph64 ], [ %indvars.iv.next73, %.critedge2 ]
  %.val55 = load ptr, ptr %18, align 8
  %24 = getelementptr inbounds nuw float, ptr %.val55, i64 %indvars.iv72
  %25 = load float, ptr %24, align 4
  tail call fastcc void @Vec_StrPutF_(ptr noundef %0, float noundef %25)
  %indvars.iv.next73 = add nuw nsw i64 %indvars.iv72, 1
  %.val50 = load i32, ptr %16, align 4
  %26 = sext i32 %.val50 to i64
  %27 = icmp slt i64 %indvars.iv.next73, %26
  br i1 %27, label %.critedge2, label %.critedge4.preheader, !llvm.loop !62

.critedge4.preheader:                             ; preds = %.critedge2, %.critedge2.preheader
  br label %.critedge4

.critedge4:                                       ; preds = %.critedge4.preheader, %.critedge4
  %.365 = phi i32 [ %28, %.critedge4 ], [ 0, %.critedge4.preheader ]
  tail call fastcc void @Vec_StrPutF_(ptr noundef %0, float noundef 0.000000e+00)
  %28 = add nuw nsw i32 %.365, 1
  %exitcond.not = icmp eq i32 %28, 3
  br i1 %exitcond.not, label %.preheader56, label %.critedge4, !llvm.loop !63

.preheader56:                                     ; preds = %.critedge4, %.preheader56
  %.466 = phi i32 [ %29, %.preheader56 ], [ 0, %.critedge4 ]
  tail call fastcc void @Vec_StrPutF_(ptr noundef %0, float noundef 0.000000e+00)
  %29 = add nuw nsw i32 %.466, 1
  %exitcond75.not = icmp eq i32 %29, 4
  br i1 %exitcond75.not, label %.preheader, label %.preheader56, !llvm.loop !64

.preheader:                                       ; preds = %.preheader56, %.preheader
  %.567 = phi i32 [ %30, %.preheader ], [ 0, %.preheader56 ]
  tail call fastcc void @Vec_StrPutF_(ptr noundef %0, float noundef 0.000000e+00)
  %30 = add nuw nsw i32 %.567, 1
  %exitcond76.not = icmp eq i32 %30, 6
  br i1 %exitcond76.not, label %31, label %.preheader, !llvm.loop !65

31:                                               ; preds = %.preheader
  ret void
}